target datalayout = "e-m:e-p270:32:32-p271:32:32-p272:64:64-i64:64-i128:128-f80:128-n8:16:32:64-S128"
target triple = "x86_64-pc-linux-gnu"

%struct.loopargs_st = type { ptr, ptr, ptr, ptr, ptr, ptr, ptr, [16 x i8], i64, i64, i64, [7 x ptr], [7 x ptr], [7 x ptr], [7 x ptr], [2 x ptr], [2 x ptr], [22 x ptr], [22 x ptr], [24 x ptr], [2 x ptr], [2 x ptr], [1 x ptr], [1 x ptr], [1 x ptr], ptr, ptr, [24 x i64], [5 x ptr], ptr, ptr, ptr, ptr, [111 x ptr], [111 x ptr], [111 x ptr], [111 x i64], [111 x i64], [111 x ptr], [111 x ptr], [111 x ptr], [111 x ptr], [111 x ptr], [111 x ptr], [111 x i64], [111 x i64], [111 x ptr] }

@bio_err = external global ptr, align 8
@testmode = internal global i32 0, align 4
@testnum = internal global i32 0, align 4
@testmoderesult = internal global i32 0, align 4
@run = internal global i32 0, align 4
@.str.450 = private unnamed_addr constant [21 x i8] c"RSA decrypt failure\0A\00", align 1

; Function Attrs: nounwind uwtable
define internal void @dofail() #0 {
  %1 = load ptr, ptr @bio_err, align 8, !tbaa !53
  call void @ERR_print_errors(ptr noundef %1)
  store i32 1, ptr @testmoderesult, align 4, !tbaa !4
  ret void
}

; Function Attrs: nounwind uwtable
define internal i32 @RSA_decrypt_loop(ptr noundef %0) #0 {
  %2 = alloca ptr, align 8
  %3 = alloca ptr, align 8
  %4 = alloca ptr, align 8
  %5 = alloca ptr, align 8
  %6 = alloca i64, align 8
  %7 = alloca ptr, align 8
  %8 = alloca i32, align 4
  %9 = alloca i32, align 4
  store ptr %0, ptr %2, align 8, !tbaa !115
  call void @llvm.lifetime.start.p0(i64 8, ptr %3) #11
  %10 = load ptr, ptr %2, align 8, !tbaa !115
  %11 = load ptr, ptr %10, align 8, !tbaa !37
  store ptr %11, ptr %3, align 8, !tbaa !37
  call void @llvm.lifetime.start.p0(i64 8, ptr %4) #11
  %12 = load ptr, ptr %3, align 8, !tbaa !37
  %13 = getelementptr inbounds nuw %struct.loopargs_st, ptr %12, i32 0, i32 2
  %14 = load ptr, ptr %13, align 8, !tbaa !92
  store ptr %14, ptr %4, align 8, !tbaa !39
  call void @llvm.lifetime.start.p0(i64 8, ptr %5) #11
  %15 = load ptr, ptr %3, align 8, !tbaa !37
  %16 = getelementptr inbounds nuw %struct.loopargs_st, ptr %15, i32 0, i32 3
  %17 = load ptr, ptr %16, align 8, !tbaa !93
  store ptr %17, ptr %5, align 8, !tbaa !39
  call void @llvm.lifetime.start.p0(i64 8, ptr %6) #11
  call void @llvm.lifetime.start.p0(i64 8, ptr %7) #11
  %18 = load ptr, ptr %3, align 8, !tbaa !37
  %19 = getelementptr inbounds nuw %struct.loopargs_st, ptr %18, i32 0, i32 14
  %20 = getelementptr inbounds [7 x ptr], ptr %19, i64 0, i64 0
  store ptr %20, ptr %7, align 8, !tbaa !272
  call void @llvm.lifetime.start.p0(i64 4, ptr %8) #11
  call void @llvm.lifetime.start.p0(i64 4, ptr %9) #11
  store i32 0, ptr %9, align 4, !tbaa !4
  br label %21

21:                                               ; preds = %53, %1
  %22 = load volatile i32, ptr @run, align 4, !tbaa !4
  %23 = icmp ne i32 %22, 0
  br i1 %23, label %24, label %30

24:                                               ; preds = %21
  %25 = load i32, ptr %9, align 4, !tbaa !4
  %26 = load i32, ptr @testmode, align 4, !tbaa !4
  %27 = icmp ne i32 %26, 0
  %28 = select i1 %27, i32 1, i32 2147483647
  %29 = icmp slt i32 %25, %28
  br label %30

30:                                               ; preds = %24, %21
  %31 = phi i1 [ false, %21 ], [ %29, %24 ]
  br i1 %31, label %32, label %56

32:                                               ; preds = %30
  %33 = load ptr, ptr %3, align 8, !tbaa !37
  %34 = getelementptr inbounds nuw %struct.loopargs_st, ptr %33, i32 0, i32 8
  %35 = load i64, ptr %34, align 8, !tbaa !94
  store i64 %35, ptr %6, align 8, !tbaa !50
  %36 = load ptr, ptr %7, align 8, !tbaa !272
  %37 = load i32, ptr @testnum, align 4, !tbaa !4
  %38 = zext i32 %37 to i64
  %39 = getelementptr inbounds nuw ptr, ptr %36, i64 %38
  %40 = load ptr, ptr %39, align 8, !tbaa !27
  %41 = load ptr, ptr %4, align 8, !tbaa !39
  %42 = load ptr, ptr %5, align 8, !tbaa !39
  %43 = load ptr, ptr %3, align 8, !tbaa !37
  %44 = getelementptr inbounds nuw %struct.loopargs_st, ptr %43, i32 0, i32 10
  %45 = load i64, ptr %44, align 8, !tbaa !155
  %46 = call i32 @EVP_PKEY_decrypt(ptr noundef %40, ptr noundef %41, ptr noundef %6, ptr noundef %42, i64 noundef %45)
  store i32 %46, ptr %8, align 4, !tbaa !4
  %47 = load i32, ptr %8, align 4, !tbaa !4
  %48 = icmp sle i32 %47, 0
  br i1 %48, label %49, label %52

49:                                               ; preds = %32
  %50 = load ptr, ptr @bio_err, align 8, !tbaa !53
  %51 = call i32 (ptr, ptr, ...) @BIO_printf(ptr noundef %50, ptr noundef @.str.450)
  call void @dofail()
  store i32 -1, ptr %9, align 4, !tbaa !4
  br label %56

52:                                               ; preds = %32
  br label %53

53:                                               ; preds = %52
  %54 = load i32, ptr %9, align 4, !tbaa !4
  %55 = add nsw i32 %54, 1
  store i32 %55, ptr %9, align 4, !tbaa !4
  br label %21, !llvm.loop !277

56:                                               ; preds = %49, %30
  %57 = load i32, ptr %9, align 4, !tbaa !4
  call void @llvm.lifetime.end.p0(i64 4, ptr %9) #11
  call void @llvm.lifetime.end.p0(i64 4, ptr %8) #11
  call void @llvm.lifetime.end.p0(i64 8, ptr %7) #11
  call void @llvm.lifetime.end.p0(i64 8, ptr %6) #11
  call void @llvm.lifetime.end.p0(i64 8, ptr %5) #11
  call void @llvm.lifetime.end.p0(i64 8, ptr %4) #11
  call void @llvm.lifetime.end.p0(i64 8, ptr %3) #11
  ret i32 %57
}