; Function Attrs: nounwind uwtable
define internal i32 @RSA_decrypt_loop(ptr noundef readonly captures(none) %0) #0 {
  %2 = alloca i64, align 8
  %3 = load ptr, ptr %0, align 8, !tbaa !189
  %4 = getelementptr inbounds nuw i8, ptr %3, i64 16
  %5 = load ptr, ptr %4, align 8, !tbaa !53
  %6 = getelementptr inbounds nuw i8, ptr %3, i64 24
  %7 = load ptr, ptr %6, align 8, !tbaa !54
  call void @llvm.lifetime.start.p0(i64 8, ptr nonnull %2) #14
  %8 = getelementptr inbounds nuw i8, ptr %3, i64 264
  %9 = load volatile i32, ptr @run, align 4, !tbaa !13
  %.not13 = icmp eq i32 %9, 0
  br i1 %.not13, label %.critedge, label %.lr.ph

.lr.ph:                                           ; preds = %1
  %10 = getelementptr inbounds nuw i8, ptr %3, i64 72
  %11 = getelementptr inbounds nuw i8, ptr %3, i64 88
  br label %12

12:                                               ; preds = %.lr.ph, %28
  %.014 = phi i32 [ 0, %.lr.ph ], [ %29, %28 ]
  %.b = load i1, ptr @testmode, align 4
  %13 = select i1 %.b, i32 1, i32 2147483647
  %14 = icmp samesign ult i32 %.014, %13
  br i1 %14, label %15, label %.critedge

15:                                               ; preds = %12
  %16 = load i64, ptr %10, align 8, !tbaa !55
  store i64 %16, ptr %2, align 8, !tbaa !28
  %17 = load i32, ptr @testnum, align 4, !tbaa !13
  %18 = zext i32 %17 to i64
  %19 = getelementptr inbounds nuw ptr, ptr %8, i64 %18
  %20 = load ptr, ptr %19, align 8, !tbaa !15
  %21 = load i64, ptr %11, align 8, !tbaa !118
  %22 = call i32 @EVP_PKEY_decrypt(ptr noundef %20, ptr noundef %5, ptr noundef nonnull %2, ptr noundef %7, i64 noundef %21) #14
  %23 = icmp slt i32 %22, 1
  br i1 %23, label %24, label %28

24:                                               ; preds = %15
  %25 = load ptr, ptr @bio_err, align 8, !tbaa !19
  %26 = call i32 (ptr, ptr, ...) @BIO_printf(ptr noundef %25, ptr noundef nonnull @.str.450) #14
  %27 = load ptr, ptr @bio_err, align 8, !tbaa !19
  call void @ERR_print_errors(ptr noundef %27) #14
  store i1 true, ptr @testmoderesult, align 4
  br label %.critedge

28:                                               ; preds = %15
  %29 = add nuw nsw i32 %.014, 1
  %30 = load volatile i32, ptr @run, align 4, !tbaa !13
  %.not = icmp eq i32 %30, 0
  br i1 %.not, label %.critedge, label %12, !llvm.loop !220

.critedge:                                        ; preds = %12, %28, %1, %24
  %.1 = phi i32 [ -1, %24 ], [ 0, %1 ], [ %.014, %12 ], [ %29, %28 ]
  call void @llvm.lifetime.end.p0(i64 8, ptr nonnull %2) #14
  ret i32 %.1
}